ccopy_reg
_reconstructor
p0
(cgoogle.oauth2.credentials
Credentials
p1
c__builtin__
object
p2
Ntp3
Rp4
(dp5
S'_quota_project_id'
p6
NsS'_token_uri'
p7
Vhttps://oauth2.googleapis.com/token
p8
sS'_client_secret'
p9
V4XKhOqsRBz2JlHa3Giz0KqI9
p10
sS'_default_scopes'
p11
NsS'expiry'
p12
cdatetime
datetime
p13
(S'\x07\xe5\x08\x06\x07\x08\t\x0b/W'
p14
tp15
Rp16
sS'token'
p17
Vya29.a0ARrdaM8QTWsHiSv1dZF5BWeHsSlIFU_6rX37zmViZsEJcwe0WpYbfqJA-hiLCd83jTg-aDTFMii756ohDCdJV3VQ-OgXC1AitS4L4QHkQ9oBylGIm0Gkyk4q-hHUxeTEbvj62288aHScd0yiWzPPoFevMZvB
p18
sS'_refresh_token'
p19
V1//0gR1L_6e8tiX8CgYIARAAGBASNwF-L9IrUdDMIlptbyXYNFZ62aDMQlNH4Egte8cecP-JXeZizP2WRscbVoUaZ8c5fDr84JVs8q0
p20
sS'_scopes'
p21
(lp22
S'https://www.googleapis.com/auth/drive'
p23
asS'_client_id'
p24
V1077518784127-o2oul609rs8j786ckhunv2e17c0vb131.apps.googleusercontent.com
p25
sS'_id_token'
p26
NsS'_rapt_token'
p27
Nsb.